; Function Attrs: mustprogress nofree norecurse nosync nounwind willreturn memory(argmem: write) uwtable
define internal void @_ZZN7rocksdb19TransactionBaseImpl21RebuildFromWriteBatchEPNS_10WriteBatchEEN24IndexedWriteBatchBuilder23MarkCommitWithTimestampERKNS_5SliceES6_(ptr dead_on_unwind noalias writable writeonly sret(%"class.rocksdb::Status") align 8 captures(none) initializes((0, 6), (8, 16)) %0, ptr nonnull readnone align 8 captures(none) %1, ptr nonnull readnone align 8 captures(none) %2, ptr nonnull readnone align 8 captures(none) %3) unnamed_addr #20 align 2 personality ptr @__gxx_personality_v0 {
  store i8 4, ptr %0, align 8, !tbaa !34, !alias.scope !820
  %5 = getelementptr inbounds nuw i8, ptr %0, i64 1
  store i8 0, ptr %5, align 1, !tbaa !52, !alias.scope !820
  %6 = getelementptr inbounds nuw i8, ptr %0, i64 2
  %7 = getelementptr inbounds nuw i8, ptr %0, i64 8
  store ptr null, ptr %7, align 8, !tbaa !50, !alias.scope !820
  store i32 0, ptr %6, align 2, !alias.scope !820
  ret void
}